; Function Attrs: mustprogress nounwind uwtable
define internal noundef range(i32 0, 5) i32 @_ZNK12_GLOBAL__N_126ParsedAttrInfoOpenCLAccess31spellingIndexToSemanticSpellingERKN5clang10ParsedAttrE(ptr nocapture nonnull readnone align 8 %0, ptr noundef nonnull align 8 dereferenceable(72) %1) unnamed_addr #0 align 2 {
  %3 = getelementptr inbounds nuw i8, ptr %1, i64 28
  %4 = load i32, ptr %3, align 4
  %5 = and i32 %4, 15728640
  %.not.i = icmp eq i32 %5, 15728640
  br i1 %.not.i, label %9, label %6

6:                                                ; preds = %2
  %7 = lshr i32 %4, 20
  %8 = and i32 %7, 15
  br label %switch.lookup

9:                                                ; preds = %2
  %10 = tail call noundef i32 @_ZNK5clang19AttributeCommonInfo35calculateAttributeSpellingListIndexEv(ptr noundef nonnull align 8 dereferenceable(32) %1) #18
  br label %switch.lookup

switch.lookup:                                    ; preds = %9, %6
  %11 = phi i32 [ %8, %6 ], [ %10, %9 ]
  %12 = sext i32 %11 to i64
  %switch.gep = getelementptr inbounds [6 x i32], ptr @switch.table._ZNK12_GLOBAL__N_126ParsedAttrInfoOpenCLAccess31spellingIndexToSemanticSpellingERKN5clang10ParsedAttrE, i64 0, i64 %12
  %switch.load = load i32, ptr %switch.gep, align 4
  ret i32 %switch.load
}